target datalayout = "e-m:e-p270:32:32-p271:32:32-p272:64:64-i64:64-i128:128-f80:128-n8:16:32:64-S128"
target triple = "x86_64-pc-linux-gnu"

%"class.gmx::SelectionTreeElement" = type { i32, %struct.gmx_ana_selvalue_t, ptr, i32, %union.anon.0, ptr, ptr, %"class.std::shared_ptr", %"class.std::shared_ptr", %"class.std::__cxx11::basic_string", %"struct.gmx::SelectionLocation" }
%struct.gmx_ana_selvalue_t = type { i32, i32, %union.anon, i32 }
%union.anon = type { ptr }
%union.anon.0 = type { %struct.anon }
%struct.anon = type { ptr, ptr, ptr, ptr }
%"class.std::shared_ptr" = type { %"class.std::__shared_ptr" }
%"class.std::__shared_ptr" = type { ptr, %"class.std::__shared_count" }
%"class.std::__shared_count" = type { ptr }
%"class.std::__cxx11::basic_string" = type { %"struct.std::__cxx11::basic_string<char>::_Alloc_hider", i64, %union.anon.2 }
%"struct.std::__cxx11::basic_string<char>::_Alloc_hider" = type { ptr }
%union.anon.2 = type { i64, [8 x i8] }
%"struct.gmx::SelectionLocation" = type { i32, i32 }
%struct.t_compiler_data = type { ptr, i32, i32, ptr, ptr }

@.str.20 = private unnamed_addr constant [12 x i8] c"cdata->gmin\00", align 1
@.str.21 = private unnamed_addr constant [128 x i8] c"generated/home/dtcxzyw/WorkSpace/Projects/compilers/llvm-opt-benchmark/bench/gromacs/gromacs/src/gromacs/selection/compiler.cpp\00", align 1
@.str.22 = private unnamed_addr constant [12 x i8] c"cdata->gmax\00", align 1
@.str.23 = private unnamed_addr constant [6 x i8] c"cdata\00", align 1

; Function Attrs: mustprogress uwtable
define internal void @_ZL14gmx_sfree_implI15t_compiler_dataEvPKcS2_iPT_(ptr noundef %0, ptr noundef %1, i32 noundef %2, ptr noundef %3) #0 {
  %5 = alloca ptr, align 8
  %6 = alloca ptr, align 8
  %7 = alloca i32, align 4
  %8 = alloca ptr, align 8
  store ptr %0, ptr %5, align 8
  store ptr %1, ptr %6, align 8
  store i32 %2, ptr %7, align 4
  store ptr %3, ptr %8, align 8
  %9 = load ptr, ptr %5, align 8
  %10 = load ptr, ptr %6, align 8
  %11 = load i32, ptr %7, align 4
  %12 = load ptr, ptr %8, align 8
  call void @_Z9save_freePKcS0_iPv(ptr noundef %9, ptr noundef %10, i32 noundef %11, ptr noundef %12)
  ret void
}

; Function Attrs: mustprogress uwtable
define internal void @_ZL14gmx_sfree_implI15gmx_ana_index_tEvPKcS2_iPT_(ptr noundef %0, ptr noundef %1, i32 noundef %2, ptr noundef %3) #0 {
  %5 = alloca ptr, align 8
  %6 = alloca ptr, align 8
  %7 = alloca i32, align 4
  %8 = alloca ptr, align 8
  store ptr %0, ptr %5, align 8
  store ptr %1, ptr %6, align 8
  store i32 %2, ptr %7, align 4
  store ptr %3, ptr %8, align 8
  %9 = load ptr, ptr %5, align 8
  %10 = load ptr, ptr %6, align 8
  %11 = load i32, ptr %7, align 4
  %12 = load ptr, ptr %8, align 8
  call void @_Z9save_freePKcS0_iPv(ptr noundef %9, ptr noundef %10, i32 noundef %11, ptr noundef %12)
  ret void
}

; Function Attrs: mustprogress uwtable
define void @_ZN3gmx20SelectionTreeElement16freeCompilerDataEv(ptr noundef nonnull align 8 dereferenceable(168) %0) #0 align 2 {
  %2 = alloca ptr, align 8
  store ptr %0, ptr %2, align 8
  %3 = load ptr, ptr %2, align 8
  %4 = getelementptr inbounds %"class.gmx::SelectionTreeElement", ptr %3, i32 0, i32 6
  %5 = load ptr, ptr %4, align 8
  %6 = icmp ne ptr %5, null
  br i1 %6, label %7, label %39

7:                                                ; preds = %1
  %8 = getelementptr inbounds %"class.gmx::SelectionTreeElement", ptr %3, i32 0, i32 6
  %9 = load ptr, ptr %8, align 8
  %10 = getelementptr inbounds %struct.t_compiler_data, ptr %9, i32 0, i32 0
  %11 = load ptr, ptr %10, align 8
  %12 = getelementptr inbounds %"class.gmx::SelectionTreeElement", ptr %3, i32 0, i32 2
  store ptr %11, ptr %12, align 8
  %13 = getelementptr inbounds %"class.gmx::SelectionTreeElement", ptr %3, i32 0, i32 6
  %14 = load ptr, ptr %13, align 8
  %15 = getelementptr inbounds %struct.t_compiler_data, ptr %14, i32 0, i32 2
  %16 = load i32, ptr %15, align 4
  %17 = and i32 %16, 16
  %18 = icmp ne i32 %17, 0
  br i1 %18, label %19, label %36

19:                                               ; preds = %7
  %20 = getelementptr inbounds %"class.gmx::SelectionTreeElement", ptr %3, i32 0, i32 6
  %21 = load ptr, ptr %20, align 8
  %22 = getelementptr inbounds %struct.t_compiler_data, ptr %21, i32 0, i32 3
  %23 = load ptr, ptr %22, align 8
  call void @_Z20gmx_ana_index_deinitP15gmx_ana_index_t(ptr noundef %23)
  %24 = getelementptr inbounds %"class.gmx::SelectionTreeElement", ptr %3, i32 0, i32 6
  %25 = load ptr, ptr %24, align 8
  %26 = getelementptr inbounds %struct.t_compiler_data, ptr %25, i32 0, i32 4
  %27 = load ptr, ptr %26, align 8
  call void @_Z20gmx_ana_index_deinitP15gmx_ana_index_t(ptr noundef %27)
  %28 = getelementptr inbounds %"class.gmx::SelectionTreeElement", ptr %3, i32 0, i32 6
  %29 = load ptr, ptr %28, align 8
  %30 = getelementptr inbounds %struct.t_compiler_data, ptr %29, i32 0, i32 3
  %31 = load ptr, ptr %30, align 8
  call void @_ZL14gmx_sfree_implI15gmx_ana_index_tEvPKcS2_iPT_(ptr noundef @.str.20, ptr noundef @.str.21, i32 noundef 459, ptr noundef %31)
  %32 = getelementptr inbounds %"class.gmx::SelectionTreeElement", ptr %3, i32 0, i32 6
  %33 = load ptr, ptr %32, align 8
  %34 = getelementptr inbounds %struct.t_compiler_data, ptr %33, i32 0, i32 4
  %35 = load ptr, ptr %34, align 8
  call void @_ZL14gmx_sfree_implI15gmx_ana_index_tEvPKcS2_iPT_(ptr noundef @.str.22, ptr noundef @.str.21, i32 noundef 460, ptr noundef %35)
  br label %36

36:                                               ; preds = %19, %7
  %37 = getelementptr inbounds %"class.gmx::SelectionTreeElement", ptr %3, i32 0, i32 6
  %38 = load ptr, ptr %37, align 8
  call void @_ZL14gmx_sfree_implI15t_compiler_dataEvPKcS2_iPT_(ptr noundef @.str.23, ptr noundef @.str.21, i32 noundef 462, ptr noundef %38)
  br label %39

39:                                               ; preds = %36, %1
  %40 = getelementptr inbounds %"class.gmx::SelectionTreeElement", ptr %3, i32 0, i32 6
  store ptr null, ptr %40, align 8
  ret void
}