; Function Attrs: mustprogress uwtable
define void @_ZN3gmx20SelectionTreeElement16freeCompilerDataEv(ptr nocapture noundef nonnull align 8 dereferenceable(168) %0) local_unnamed_addr #0 align 2 {
  %2 = getelementptr inbounds i8, ptr %0, i64 88
  %3 = load ptr, ptr %2, align 8
  %.not = icmp eq ptr %3, null
  br i1 %.not, label %24, label %4

4:                                                ; preds = %1
  %5 = load ptr, ptr %3, align 8
  %6 = getelementptr inbounds i8, ptr %0, i64 32
  store ptr %5, ptr %6, align 8
  %7 = getelementptr inbounds i8, ptr %3, i64 12
  %8 = load i32, ptr %7, align 4
  %9 = and i32 %8, 16
  %.not1 = icmp eq i32 %9, 0
  br i1 %.not1, label %22, label %10

10:                                               ; preds = %4
  %11 = getelementptr inbounds i8, ptr %3, i64 16
  %12 = load ptr, ptr %11, align 8
  tail call void @_Z20gmx_ana_index_deinitP15gmx_ana_index_t(ptr noundef %12)
  %13 = load ptr, ptr %2, align 8
  %14 = getelementptr inbounds i8, ptr %13, i64 24
  %15 = load ptr, ptr %14, align 8
  tail call void @_Z20gmx_ana_index_deinitP15gmx_ana_index_t(ptr noundef %15)
  %16 = load ptr, ptr %2, align 8
  %17 = getelementptr inbounds i8, ptr %16, i64 16
  %18 = load ptr, ptr %17, align 8
  tail call void @_Z9save_freePKcS0_iPv(ptr noundef nonnull @.str.20, ptr noundef nonnull @.str.21, i32 noundef 459, ptr noundef %18)
  %19 = load ptr, ptr %2, align 8
  %20 = getelementptr inbounds i8, ptr %19, i64 24
  %21 = load ptr, ptr %20, align 8
  tail call void @_Z9save_freePKcS0_iPv(ptr noundef nonnull @.str.22, ptr noundef nonnull @.str.21, i32 noundef 460, ptr noundef %21)
  %.pre = load ptr, ptr %2, align 8
  br label %22

22:                                               ; preds = %10, %4
  %23 = phi ptr [ %.pre, %10 ], [ %3, %4 ]
  tail call void @_Z9save_freePKcS0_iPv(ptr noundef nonnull @.str.23, ptr noundef nonnull @.str.21, i32 noundef 462, ptr noundef %23)
  br label %24

24:                                               ; preds = %22, %1
  store ptr null, ptr %2, align 8
  ret void
}